; ModuleID = '58/721.c'
source_filename = "58/721.c"
target datalayout = "e-m:e-p270:32:32-p271:32:32-p272:64:64-i64:64-f80:128-n8:16:32:64-S128"
target triple = "x86_64-pc-linux-gnu"

@.str = private unnamed_addr constant [3 x i8] c"%d\00", align 1
@.str.1 = private unnamed_addr constant [4 x i8] c"%d\0A\00", align 1

; Function Attrs: noinline nounwind uwtable
define dso_local i32 @main() #0 {
  %1 = alloca i32, align 4
  %2 = alloca [100 x i8], align 16
  %3 = alloca i8, align 1
  %4 = alloca i32, align 4
  %5 = alloca i32, align 4
  %6 = alloca i32, align 4
  %7 = alloca i32, align 4
  %8 = alloca i32, align 4
  %9 = alloca i32, align 4
  %10 = alloca [100 x i32], align 16
  store i32 0, i32* %1, align 4
  %11 = call i32 (i8*, ...) @__isoc99_scanf(i8* getelementptr inbounds ([3 x i8], [3 x i8]* @.str, i64 0, i64 0), i32* %4)
  %12 = getelementptr inbounds [100 x i8], [100 x i8]* %2, i64 0, i64 0
  %13 = call i32 (i8*, ...) bitcast (i32 (...)* @gets to i32 (i8*, ...)*)(i8* %12)
  store i32 1, i32* %5, align 4
  br label %14

14:                                               ; preds = %116, %0
  %15 = load i32, i32* %5, align 4
  %16 = load i32, i32* %4, align 4
  %17 = icmp sle i32 %15, %16
  br i1 %17, label %18, label %119

18:                                               ; preds = %14
  %19 = getelementptr inbounds [100 x i8], [100 x i8]* %2, i64 0, i64 0
  %20 = call i32 (i8*, ...) bitcast (i32 (...)* @gets to i32 (i8*, ...)*)(i8* %19)
  %21 = getelementptr inbounds [100 x i8], [100 x i8]* %2, i64 0, i64 0
  %22 = call i64 @strlen(i8* %21) #3
  %23 = trunc i64 %22 to i32
  store i32 %23, i32* %8, align 4
  %24 = getelementptr inbounds [100 x i8], [100 x i8]* %2, i64 0, i64 0
  %25 = load i8, i8* %24, align 16
  %26 = sext i8 %25 to i32
  store i32 %26, i32* %6, align 4
  %27 = load i32, i32* %6, align 4
  %28 = icmp sge i32 %27, 65
  br i1 %28, label %29, label %32

29:                                               ; preds = %18
  %30 = load i32, i32* %6, align 4
  %31 = icmp sle i32 %30, 90
  br i1 %31, label %41, label %32

32:                                               ; preds = %29, %18
  %33 = load i32, i32* %6, align 4
  %34 = icmp eq i32 %33, 95
  br i1 %34, label %41, label %35

35:                                               ; preds = %32
  %36 = load i32, i32* %6, align 4
  %37 = icmp sle i32 %36, 122
  br i1 %37, label %38, label %46

38:                                               ; preds = %35
  %39 = load i32, i32* %6, align 4
  %40 = icmp sge i32 %39, 97
  br i1 %40, label %41, label %46

41:                                               ; preds = %38, %32, %29
  %42 = load i32, i32* %5, align 4
  %43 = sub nsw i32 %42, 1
  %44 = sext i32 %43 to i64
  %45 = getelementptr inbounds [100 x i32], [100 x i32]* %10, i64 0, i64 %44
  store i32 1, i32* %45, align 4
  br label %51

46:                                               ; preds = %38, %35
  %47 = load i32, i32* %5, align 4
  %48 = sub nsw i32 %47, 1
  %49 = sext i32 %48 to i64
  %50 = getelementptr inbounds [100 x i32], [100 x i32]* %10, i64 0, i64 %49
  store i32 0, i32* %50, align 4
  br label %51

51:                                               ; preds = %46, %41
  store i32 1, i32* %9, align 4
  br label %52

52:                                               ; preds = %112, %51
  %53 = load i32, i32* %9, align 4
  %54 = load i32, i32* %8, align 4
  %55 = sub nsw i32 %54, 1
  %56 = icmp sle i32 %53, %55
  br i1 %56, label %57, label %115

57:                                               ; preds = %52
  %58 = load i32, i32* %9, align 4
  %59 = sext i32 %58 to i64
  %60 = getelementptr inbounds [100 x i8], [100 x i8]* %2, i64 0, i64 %59
  %61 = load i8, i8* %60, align 1
  %62 = sext i8 %61 to i32
  %63 = icmp sle i32 %62, 64
  br i1 %63, label %64, label %71

64:                                               ; preds = %57
  %65 = load i32, i32* %9, align 4
  %66 = sext i32 %65 to i64
  %67 = getelementptr inbounds [100 x i8], [100 x i8]* %2, i64 0, i64 %66
  %68 = load i8, i8* %67, align 1
  %69 = sext i8 %68 to i32
  %70 = icmp sge i32 %69, 58
  br i1 %70, label %106, label %71

71:                                               ; preds = %64, %57
  %72 = load i32, i32* %9, align 4
  %73 = sext i32 %72 to i64
  %74 = getelementptr inbounds [100 x i8], [100 x i8]* %2, i64 0, i64 %73
  %75 = load i8, i8* %74, align 1
  %76 = sext i8 %75 to i32
  %77 = icmp sge i32 %76, 91
  br i1 %77, label %78, label %85

78:                                               ; preds = %71
  %79 = load i32, i32* %9, align 4
  %80 = sext i32 %79 to i64
  %81 = getelementptr inbounds [100 x i8], [100 x i8]* %2, i64 0, i64 %80
  %82 = load i8, i8* %81, align 1
  %83 = sext i8 %82 to i32
  %84 = icmp sle i32 %83, 94
  br i1 %84, label %106, label %85

85:                                               ; preds = %78, %71
  %86 = load i32, i32* %9, align 4
  %87 = sext i32 %86 to i64
  %88 = getelementptr inbounds [100 x i8], [100 x i8]* %2, i64 0, i64 %87
  %89 = load i8, i8* %88, align 1
  %90 = sext i8 %89 to i32
  %91 = icmp eq i32 %90, 96
  br i1 %91, label %106, label %92

92:                                               ; preds = %85
  %93 = load i32, i32* %9, align 4
  %94 = sext i32 %93 to i64
  %95 = getelementptr inbounds [100 x i8], [100 x i8]* %2, i64 0, i64 %94
  %96 = load i8, i8* %95, align 1
  %97 = sext i8 %96 to i32
  %98 = icmp sge i32 %97, 123
  br i1 %98, label %106, label %99

99:                                               ; preds = %92
  %100 = load i32, i32* %9, align 4
  %101 = sext i32 %100 to i64
  %102 = getelementptr inbounds [100 x i8], [100 x i8]* %2, i64 0, i64 %101
  %103 = load i8, i8* %102, align 1
  %104 = sext i8 %103 to i32
  %105 = icmp sle i32 %104, 47
  br i1 %105, label %106, label %111

106:                                              ; preds = %99, %92, %85, %78, %64
  %107 = load i32, i32* %5, align 4
  %108 = sub nsw i32 %107, 1
  %109 = sext i32 %108 to i64
  %110 = getelementptr inbounds [100 x i32], [100 x i32]* %10, i64 0, i64 %109
  store i32 0, i32* %110, align 4
  br label %111

111:                                              ; preds = %106, %99
  br label %112

112:                                              ; preds = %111
  %113 = load i32, i32* %9, align 4
  %114 = add nsw i32 %113, 1
  store i32 %114, i32* %9, align 4
  br label %52

115:                                              ; preds = %52
  br label %116

116:                                              ; preds = %115
  %117 = load i32, i32* %5, align 4
  %118 = add nsw i32 %117, 1
  store i32 %118, i32* %5, align 4
  br label %14

119:                                              ; preds = %14
  store i32 1, i32* %7, align 4
  br label %120

120:                                              ; preds = %131, %119
  %121 = load i32, i32* %7, align 4
  %122 = load i32, i32* %4, align 4
  %123 = icmp sle i32 %121, %122
  br i1 %123, label %124, label %134

124:                                              ; preds = %120
  %125 = load i32, i32* %7, align 4
  %126 = sub nsw i32 %125, 1
  %127 = sext i32 %126 to i64
  %128 = getelementptr inbounds [100 x i32], [100 x i32]* %10, i64 0, i64 %127
  %129 = load i32, i32* %128, align 4
  %130 = call i32 (i8*, ...) @printf(i8* getelementptr inbounds ([4 x i8], [4 x i8]* @.str.1, i64 0, i64 0), i32 %129)
  br label %131

131:                                              ; preds = %124
  %132 = load i32, i32* %7, align 4
  %133 = add nsw i32 %132, 1
  store i32 %133, i32* %7, align 4
  br label %120

134:                                              ; preds = %120
  ret i32 0
}

declare dso_local i32 @__isoc99_scanf(i8*, ...) #1

declare dso_local i32 @gets(...) #1

; Function Attrs: nounwind readonly
declare dso_local i64 @strlen(i8*) #2

declare dso_local i32 @printf(i8*, ...) #1


!llvm.module.flags = !{!0}
!llvm.ident = !{!1}

!0 = !{i32 1, !"wchar_size", i32 4}
!1 = !{!"clang version 10.0.0-4ubuntu1 "}
